; Function Attrs: nounwind uwtable
define hidden void @PyInstructionSequence_Fini(ptr noundef captures(none) %0) local_unnamed_addr #1 {
  %2 = getelementptr inbounds nuw i8, ptr %0, i64 56
  %3 = load ptr, ptr %2, align 8, !tbaa !34
  %.not.i = icmp eq ptr %3, null
  br i1 %.not.i, label %Py_XDECREF.exit, label %4

4:                                                ; preds = %1
  %5 = load i32, ptr %3, align 8, !tbaa !35
  %.not.i.i = icmp sgt i32 %5, -1
  br i1 %.not.i.i, label %6, label %Py_XDECREF.exit

6:                                                ; preds = %4
  %7 = add nsw i32 %5, -1
  store i32 %7, ptr %3, align 8, !tbaa !35
  %8 = icmp eq i32 %7, 0
  br i1 %8, label %9, label %Py_XDECREF.exit

9:                                                ; preds = %6
  tail call void @_Py_Dealloc(ptr noundef nonnull %3) #6
  br label %Py_XDECREF.exit

Py_XDECREF.exit:                                  ; preds = %1, %4, %6, %9
  %10 = getelementptr inbounds nuw i8, ptr %0, i64 40
  %11 = load ptr, ptr %10, align 8, !tbaa !15
  tail call void @PyMem_Free(ptr noundef %11) #6
  store ptr null, ptr %10, align 8, !tbaa !15
  %12 = getelementptr inbounds nuw i8, ptr %0, i64 16
  %13 = load ptr, ptr %12, align 8, !tbaa !20
  tail call void @PyMem_Free(ptr noundef %13) #6
  store ptr null, ptr %12, align 8, !tbaa !20
  ret void
}